---
triple:          'x86_64-apple-darwin'
binary-path:     '/Users/andrew/repos/CPP-labs/MNK/main'
relocations:
  - { offset: 0x4205, size: 0x8, addend: 0x0, symName: __ZNSt3__16__math3powB8ne180100IdiTnNS_9enable_ifIXaasr13is_arithmeticIT_EE5valuesr13is_arithmeticIT0_EE5valueEiE4typeELi0EEENS_9__promoteIS3_S4_vE4typeES3_S4_, symObjAddr: 0x550, symBinAddr: 0x100004370, symSize: 0x30 }
  - { offset: 0x4262, size: 0x8, addend: 0x0, symName: __ZNSt3__16__math3powB8ne180100IiEEddd, symObjAddr: 0x1F90, symBinAddr: 0x100005DB0, symSize: 0x30 }
  - { offset: 0x4326, size: 0x8, addend: 0x0, symName: __ZNSt3__124__put_character_sequenceB8ne180100IcNS_11char_traitsIcEEEERNS_13basic_ostreamIT_T0_EES7_PKS4_m, symObjAddr: 0x1FC0, symBinAddr: 0x100005DE0, symSize: 0x1F0 }
  - { offset: 0x53A2, size: 0x8, addend: 0x0, symName: __ZNSt3__1lsB8ne180100INS_11char_traitsIcEEEERNS_13basic_ostreamIcT_EES6_PKc, symObjAddr: 0x580, symBinAddr: 0x1000043A0, symSize: 0x40 }
  - { offset: 0x53E8, size: 0x8, addend: 0x0, symName: __ZNSt3__14endlB8ne180100IcNS_11char_traitsIcEEEERNS_13basic_ostreamIT_T0_EES7_, symObjAddr: 0x5E0, symBinAddr: 0x100004400, symSize: 0x50 }
  - { offset: 0x5428, size: 0x8, addend: 0x0, symName: __ZNSt3__122__make_exception_guardB8ne180100INS_6vectorIdNS_9allocatorIdEEE16__destroy_vectorEEENS_28__exception_guard_exceptionsIT_EES7_, symObjAddr: 0x1370, symBinAddr: 0x100005190, symSize: 0x40 }
  - { offset: 0x545D, size: 0x8, addend: 0x0, symName: __ZNSt3__119__allocate_at_leastB8ne180100INS_9allocatorIdEEEENS_19__allocation_resultINS_16allocator_traitsIT_E7pointerEEERS5_m, symObjAddr: 0x1720, symBinAddr: 0x100005540, symSize: 0x40 }
  - { offset: 0x54A0, size: 0x8, addend: 0x0, symName: __ZNSt3__13minB8ne180100ImEERKT_S3_S3_, symObjAddr: 0x17B0, symBinAddr: 0x1000055D0, symSize: 0x30 }
  - { offset: 0x56E4, size: 0x8, addend: 0x0, symName: __ZNSt3__13minB8ne180100ImNS_6__lessIvvEEEERKT_S5_S5_T0_, symObjAddr: 0x1840, symBinAddr: 0x100005660, symSize: 0x50 }
  - { offset: 0x5783, size: 0x8, addend: 0x0, symName: __ZNSt3__120__throw_length_errorB8ne180100EPKc, symObjAddr: 0x1920, symBinAddr: 0x100005740, symSize: 0x70 }
  - { offset: 0x57AB, size: 0x8, addend: 0x0, symName: __ZNSt3__117__libcpp_allocateB8ne180100Emm, symObjAddr: 0x1A90, symBinAddr: 0x1000058B0, symSize: 0x20 }
  - { offset: 0x57E8, size: 0x8, addend: 0x0, symName: __ZNSt3__121__libcpp_operator_newB8ne180100IJmEEEPvDpT_, symObjAddr: 0x1AB0, symBinAddr: 0x1000058D0, symSize: 0x20 }
  - { offset: 0x5821, size: 0x8, addend: 0x0, symName: __ZNSt3__112__to_addressB8ne180100IdEEPT_S2_, symObjAddr: 0x1B90, symBinAddr: 0x1000059B0, symSize: 0x10 }
  - { offset: 0x5856, size: 0x8, addend: 0x0, symName: __ZNSt3__119__libcpp_deallocateB8ne180100EPvmm, symObjAddr: 0x1E90, symBinAddr: 0x100005CB0, symSize: 0x30 }
  - { offset: 0x589E, size: 0x8, addend: 0x0, symName: __ZNSt3__127__do_deallocate_handle_sizeB8ne180100IJEEEvPvmDpT_, symObjAddr: 0x1EC0, symBinAddr: 0x100005CE0, symSize: 0x20 }
  - { offset: 0x58DC, size: 0x8, addend: 0x0, symName: __ZNSt3__124__libcpp_operator_deleteB8ne180100IJPvEEEvDpT_, symObjAddr: 0x1EE0, symBinAddr: 0x100005D00, symSize: 0x20 }
  - { offset: 0x5911, size: 0x8, addend: 0x0, symName: __ZNSt3__116__pad_and_outputB8ne180100IcNS_11char_traitsIcEEEENS_19ostreambuf_iteratorIT_T0_EES6_PKS4_S8_S8_RNS_8ios_baseES4_, symObjAddr: 0x2200, symBinAddr: 0x100006020, symSize: 0x220 }
  - { offset: 0x59E1, size: 0x8, addend: 0x0, symName: __ZNSt3__112__to_addressB8ne180100IKcEEPT_S3_, symObjAddr: 0x2720, symBinAddr: 0x100006540, symSize: 0x10 }
  - { offset: 0x5A49, size: 0x8, addend: 0x0, symName: __ZNSt3__19use_facetB8ne180100INS_5ctypeIcEEEERKT_RKNS_6localeE, symObjAddr: 0x2980, symBinAddr: 0x1000067A0, symSize: 0x30 }
  - { offset: 0x5F16, size: 0x8, addend: 0x0, symName: __ZNSt3__118__constexpr_strlenB8ne180100EPKc, symObjAddr: 0x2A10, symBinAddr: 0x100006830, symSize: 0x20 }
  - { offset: 0x5F42, size: 0x8, addend: 0x0, symName: __ZNSt3__130__uninitialized_allocator_copyB8ne180100INS_9allocatorIdEEPKdS4_PdEET2_RT_T0_T1_S6_, symObjAddr: 0x2C30, symBinAddr: 0x100006A50, symSize: 0x80 }
  - { offset: 0x5FDF, size: 0x8, addend: 0x0, symName: __ZNSt3__114__unwrap_rangeB8ne180100IPKdS2_EENS_4pairIT0_S4_EET_S6_, symObjAddr: 0x2CB0, symBinAddr: 0x100006AD0, symSize: 0x50 }
  - { offset: 0x602B, size: 0x8, addend: 0x0, symName: __ZNSt3__135__uninitialized_allocator_copy_implB8ne180100INS_9allocatorIdEEKdddTnPNS_9enable_ifIXaaaaaasr31is_trivially_copy_constructibleIT1_EE5valuesr28is_trivially_copy_assignableIS5_EE5valuesr7is_sameIu14__remove_constIT0_Eu14__remove_constIT2_EEE5valuesr38__allocator_has_trivial_copy_constructIT_S5_EE5valueEvE4typeELPv0EEEPS8_RSA_PS6_SH_SF_, symObjAddr: 0x2D00, symBinAddr: 0x100006B20, symSize: 0x30 }
  - { offset: 0x60AC, size: 0x8, addend: 0x0, symName: __ZNSt3__113__unwrap_iterB8ne180100IPdNS_18__unwrap_iter_implIS1_Lb1EEETnNS_9enable_ifIXsr21is_copy_constructibleIT_EE5valueEiE4typeELi0EEEDTclsrT0_8__unwrapclsr3stdE7declvalIS5_EEEES5_, symObjAddr: 0x2D30, symBinAddr: 0x100006B50, symSize: 0x20 }
  - { offset: 0x60F0, size: 0x8, addend: 0x0, symName: __ZNSt3__113__rewrap_iterB8ne180100IPdS1_NS_18__unwrap_iter_implIS1_Lb1EEEEET_S4_T0_, symObjAddr: 0x2D50, symBinAddr: 0x100006B70, symSize: 0x40 }
  - { offset: 0x6145, size: 0x8, addend: 0x0, symName: __ZNSt3__19make_pairB8ne180100IPKdS2_EENS_4pairINS_18__unwrap_ref_decayIT_E4typeENS4_IT0_E4typeEEEOS5_OS8_, symObjAddr: 0x2D90, symBinAddr: 0x100006BB0, symSize: 0x30 }
  - { offset: 0x6194, size: 0x8, addend: 0x0, symName: __ZNSt3__113__unwrap_iterB8ne180100IPKdNS_18__unwrap_iter_implIS2_Lb1EEETnNS_9enable_ifIXsr21is_copy_constructibleIT_EE5valueEiE4typeELi0EEEDTclsrT0_8__unwrapclsr3stdE7declvalIS6_EEEES6_, symObjAddr: 0x2DC0, symBinAddr: 0x100006BE0, symSize: 0x20 }
  - { offset: 0x62FF, size: 0x8, addend: 0x0, symName: __ZNSt3__112__to_addressB8ne180100IKdEEPT_S3_, symObjAddr: 0x2E60, symBinAddr: 0x100006C80, symSize: 0x10 }
  - { offset: 0x6334, size: 0x8, addend: 0x0, symName: __ZNSt3__14copyB8ne180100IPKdPdEET0_T_S5_S4_, symObjAddr: 0x2E70, symBinAddr: 0x100006C90, symSize: 0x40 }
  - { offset: 0x638E, size: 0x8, addend: 0x0, symName: __ZNSt3__16__copyB8ne180100INS_17_ClassicAlgPolicyEPKdS3_PdEENS_4pairIT0_T2_EES6_T1_S7_, symObjAddr: 0x2EB0, symBinAddr: 0x100006CD0, symSize: 0x40 }
  - { offset: 0x63FA, size: 0x8, addend: 0x0, symName: __ZNSt3__123__dispatch_copy_or_moveB8ne180100INS_17_ClassicAlgPolicyENS_11__copy_loopIS1_EENS_14__copy_trivialEPKdS6_PdEENS_4pairIT2_T4_EES9_T3_SA_, symObjAddr: 0x2EF0, symBinAddr: 0x100006D10, symSize: 0x40 }
  - { offset: 0x6478, size: 0x8, addend: 0x0, symName: __ZNSt3__121__unwrap_and_dispatchB8ne180100INS_10__overloadINS_11__copy_loopINS_17_ClassicAlgPolicyEEENS_14__copy_trivialEEEPKdS8_PdTnNS_9enable_ifIXsr12__can_rewrapIT0_T1_T2_EE5valueEiE4typeELi0EEENS_4pairISB_SD_EESB_SC_SD_, symObjAddr: 0x2F30, symBinAddr: 0x100006D50, symSize: 0xB0 }
  - { offset: 0x668C, size: 0x8, addend: 0x0, symName: __ZNSt3__19make_pairB8ne180100IPKdPdEENS_4pairINS_18__unwrap_ref_decayIT_E4typeENS5_IT0_E4typeEEEOS6_OS9_, symObjAddr: 0x3020, symBinAddr: 0x100006E40, symSize: 0x30 }
  - { offset: 0x66DB, size: 0x8, addend: 0x0, symName: __ZNSt3__114__rewrap_rangeB8ne180100IPKdS2_EET_S3_T0_, symObjAddr: 0x3050, symBinAddr: 0x100006E70, symSize: 0x30 }
  - { offset: 0x6727, size: 0x8, addend: 0x0, symName: __ZNSt3__119__copy_trivial_implB8ne180100IKddEENS_4pairIPT_PT0_EES4_S4_S6_, symObjAddr: 0x3080, symBinAddr: 0x100006EA0, symSize: 0x70 }
  - { offset: 0x678F, size: 0x8, addend: 0x0, symName: __ZNSt3__119__constexpr_memmoveB8ne180100IdKdTnNS_9enable_ifIXsr23__is_always_bitcastableIT0_T_EE5valueEiE4typeELi0EEEPS4_S7_PS3_NS_15__element_countE, symObjAddr: 0x30F0, symBinAddr: 0x100006F10, symSize: 0x50 }
  - { offset: 0x67FD, size: 0x8, addend: 0x0, symName: __ZNSt3__19make_pairB8ne180100IRPKdPdEENS_4pairINS_18__unwrap_ref_decayIT_E4typeENS6_IT0_E4typeEEEOS7_OSA_, symObjAddr: 0x3140, symBinAddr: 0x100006F60, symSize: 0x30 }
  - { offset: 0x684C, size: 0x8, addend: 0x0, symName: __ZNSt3__113__rewrap_iterB8ne180100IPKdS2_NS_18__unwrap_iter_implIS2_Lb1EEEEET_S5_T0_, symObjAddr: 0x3230, symBinAddr: 0x100007050, symSize: 0x40 }
  - { offset: 0x68F4, size: 0x8, addend: 0x0, symName: __ZNSt3__130__uninitialized_allocator_copyB8ne180100INS_9allocatorIdEEPdS3_S3_EET2_RT_T0_T1_S4_, symObjAddr: 0x35C0, symBinAddr: 0x1000073E0, symSize: 0x80 }
  - { offset: 0x6991, size: 0x8, addend: 0x0, symName: __ZNSt3__114__unwrap_rangeB8ne180100IPdS1_EENS_4pairIT0_S3_EET_S5_, symObjAddr: 0x3640, symBinAddr: 0x100007460, symSize: 0x50 }
  - { offset: 0x69DD, size: 0x8, addend: 0x0, symName: __ZNSt3__135__uninitialized_allocator_copy_implB8ne180100INS_9allocatorIdEEdddTnPNS_9enable_ifIXaaaaaasr31is_trivially_copy_constructibleIT1_EE5valuesr28is_trivially_copy_assignableIS4_EE5valuesr7is_sameIu14__remove_constIT0_Eu14__remove_constIT2_EEE5valuesr38__allocator_has_trivial_copy_constructIT_S4_EE5valueEvE4typeELPv0EEEPS7_RS9_PS5_SG_SE_, symObjAddr: 0x3690, symBinAddr: 0x1000074B0, symSize: 0x30 }
  - { offset: 0x6A5E, size: 0x8, addend: 0x0, symName: __ZNSt3__19make_pairB8ne180100IPdS1_EENS_4pairINS_18__unwrap_ref_decayIT_E4typeENS3_IT0_E4typeEEEOS4_OS7_, symObjAddr: 0x36C0, symBinAddr: 0x1000074E0, symSize: 0x30 }
  - { offset: 0x6BB0, size: 0x8, addend: 0x0, symName: __ZNSt3__14copyB8ne180100IPdS1_EET0_T_S3_S2_, symObjAddr: 0x3750, symBinAddr: 0x100007570, symSize: 0x40 }
  - { offset: 0x6C0A, size: 0x8, addend: 0x0, symName: __ZNSt3__16__copyB8ne180100INS_17_ClassicAlgPolicyEPdS2_S2_EENS_4pairIT0_T2_EES4_T1_S5_, symObjAddr: 0x3790, symBinAddr: 0x1000075B0, symSize: 0x40 }
  - { offset: 0x6C76, size: 0x8, addend: 0x0, symName: __ZNSt3__123__dispatch_copy_or_moveB8ne180100INS_17_ClassicAlgPolicyENS_11__copy_loopIS1_EENS_14__copy_trivialEPdS5_S5_EENS_4pairIT2_T4_EES7_T3_S8_, symObjAddr: 0x37D0, symBinAddr: 0x1000075F0, symSize: 0x40 }
  - { offset: 0x6CF4, size: 0x8, addend: 0x0, symName: __ZNSt3__121__unwrap_and_dispatchB8ne180100INS_10__overloadINS_11__copy_loopINS_17_ClassicAlgPolicyEEENS_14__copy_trivialEEEPdS7_S7_TnNS_9enable_ifIXsr12__can_rewrapIT0_T1_T2_EE5valueEiE4typeELi0EEENS_4pairIS9_SB_EES9_SA_SB_, symObjAddr: 0x3810, symBinAddr: 0x100007630, symSize: 0xB0 }
  - { offset: 0x6D83, size: 0x8, addend: 0x0, symName: __ZNSt3__114__rewrap_rangeB8ne180100IPdS1_EET_S2_T0_, symObjAddr: 0x3900, symBinAddr: 0x100007720, symSize: 0x30 }
  - { offset: 0x6DCF, size: 0x8, addend: 0x0, symName: __ZNSt3__119__copy_trivial_implB8ne180100IddEENS_4pairIPT_PT0_EES3_S3_S5_, symObjAddr: 0x3930, symBinAddr: 0x100007750, symSize: 0x70 }
  - { offset: 0x6E37, size: 0x8, addend: 0x0, symName: __ZNSt3__119__constexpr_memmoveB8ne180100IddTnNS_9enable_ifIXsr23__is_always_bitcastableIT0_T_EE5valueEiE4typeELi0EEEPS3_S6_PS2_NS_15__element_countE, symObjAddr: 0x39A0, symBinAddr: 0x1000077C0, symSize: 0x50 }
  - { offset: 0x6EA5, size: 0x8, addend: 0x0, symName: __ZNSt3__19make_pairB8ne180100IRPdS1_EENS_4pairINS_18__unwrap_ref_decayIT_E4typeENS4_IT0_E4typeEEEOS5_OS8_, symObjAddr: 0x39F0, symBinAddr: 0x100007810, symSize: 0x30 }
  - { offset: 0x7D35, size: 0x8, addend: 0x0, symName: __ZSt28__throw_bad_array_new_lengthB8ne180100v, symObjAddr: 0x1A50, symBinAddr: 0x100005870, symSize: 0x40 }
  - { offset: 0x82A5, size: 0x8, addend: 0x0, symName: __Z3LinNSt3__16vectorIdNS_9allocatorIdEEEES3_, symObjAddr: 0x0, symBinAddr: 0x100003E20, symSize: 0x500 }
  - { offset: 0x83C6, size: 0x8, addend: 0x0, symName: __ZNSt3__16vectorIdNS_9allocatorIdEEEC1Em, symObjAddr: 0x500, symBinAddr: 0x100004320, symSize: 0x30 }
  - { offset: 0x83FF, size: 0x8, addend: 0x0, symName: __ZNSt3__16vectorIdNS_9allocatorIdEEEixB8ne180100Em, symObjAddr: 0x530, symBinAddr: 0x100004350, symSize: 0x20 }
  - { offset: 0x8434, size: 0x8, addend: 0x0, symName: __ZNSt3__113basic_ostreamIcNS_11char_traitsIcEEElsB8ne180100EPFRS3_S4_E, symObjAddr: 0x5C0, symBinAddr: 0x1000043E0, symSize: 0x20 }
  - { offset: 0x8466, size: 0x8, addend: 0x0, symName: __Z3absB8ne180100d, symObjAddr: 0x630, symBinAddr: 0x100004450, symSize: 0x20 }
  - { offset: 0x8492, size: 0x8, addend: 0x0, symName: __ZNSt3__16vectorIdNS_9allocatorIdEEED1B8ne180100Ev, symObjAddr: 0x650, symBinAddr: 0x100004470, symSize: 0x20 }
  - { offset: 0x84BA, size: 0x8, addend: 0x0, symName: __Z3ExpNSt3__16vectorIdNS_9allocatorIdEEEES3_, symObjAddr: 0x670, symBinAddr: 0x100004490, symSize: 0x540 }
  - { offset: 0x85CC, size: 0x8, addend: 0x0, symName: __Z3HypNSt3__16vectorIdNS_9allocatorIdEEEES3_, symObjAddr: 0xBB0, symBinAddr: 0x1000049D0, symSize: 0x350 }
  - { offset: 0x86CF, size: 0x8, addend: 0x0, symName: _main, symObjAddr: 0xF00, symBinAddr: 0x100004D20, symSize: 0x310 }
  - { offset: 0x8707, size: 0x8, addend: 0x0, symName: __ZNSt3__16vectorIdNS_9allocatorIdEEEC1B8ne180100ESt16initializer_listIdE, symObjAddr: 0x1210, symBinAddr: 0x100005030, symSize: 0x30 }
  - { offset: 0x8740, size: 0x8, addend: 0x0, symName: __ZNSt3__16vectorIdNS_9allocatorIdEEEC1ERKS3_, symObjAddr: 0x1240, symBinAddr: 0x100005060, symSize: 0x30 }
  - { offset: 0x8779, size: 0x8, addend: 0x0, symName: __ZNSt3__16vectorIdNS_9allocatorIdEEEC2Em, symObjAddr: 0x1270, symBinAddr: 0x100005090, symSize: 0xD0 }
  - { offset: 0x87D6, size: 0x8, addend: 0x0, symName: __ZNSt3__117__compressed_pairIPdNS_9allocatorIdEEEC1B8ne180100IDnNS_18__default_init_tagEEEOT_OT0_, symObjAddr: 0x1340, symBinAddr: 0x100005160, symSize: 0x30 }
  - { offset: 0x882C, size: 0x8, addend: 0x0, symName: __ZNSt3__16vectorIdNS_9allocatorIdEEE16__destroy_vectorC1B8ne180100ERS3_, symObjAddr: 0x13B0, symBinAddr: 0x1000051D0, symSize: 0x30 }
  - { offset: 0x8863, size: 0x8, addend: 0x0, symName: __ZNSt3__16vectorIdNS_9allocatorIdEEE11__vallocateB8ne180100Em, symObjAddr: 0x13E0, symBinAddr: 0x100005200, symSize: 0xA0 }
  - { offset: 0x88A5, size: 0x8, addend: 0x0, symName: __ZNSt3__16vectorIdNS_9allocatorIdEEE18__construct_at_endEm, symObjAddr: 0x1480, symBinAddr: 0x1000052A0, symSize: 0xC0 }
  - { offset: 0x8915, size: 0x8, addend: 0x0, symName: __ZNSt3__128__exception_guard_exceptionsINS_6vectorIdNS_9allocatorIdEEE16__destroy_vectorEE10__completeB8ne180100Ev, symObjAddr: 0x1540, symBinAddr: 0x100005360, symSize: 0x20 }
  - { offset: 0x8939, size: 0x8, addend: 0x0, symName: __ZNSt3__128__exception_guard_exceptionsINS_6vectorIdNS_9allocatorIdEEE16__destroy_vectorEED1B8ne180100Ev, symObjAddr: 0x1560, symBinAddr: 0x100005380, symSize: 0x20 }
  - { offset: 0x8961, size: 0x8, addend: 0x0, symName: __ZNSt3__117__compressed_pairIPdNS_9allocatorIdEEEC2B8ne180100IDnNS_18__default_init_tagEEEOT_OT0_, symObjAddr: 0x1580, symBinAddr: 0x1000053A0, symSize: 0x40 }
  - { offset: 0x89B7, size: 0x8, addend: 0x0, symName: __ZNSt3__122__compressed_pair_elemIPdLi0ELb0EEC2B8ne180100IDnvEEOT_, symObjAddr: 0x15C0, symBinAddr: 0x1000053E0, symSize: 0x20 }
  - { offset: 0x89F7, size: 0x8, addend: 0x0, symName: __ZNSt3__122__compressed_pair_elemINS_9allocatorIdEELi1ELb1EEC2B8ne180100ENS_18__default_init_tagE, symObjAddr: 0x15E0, symBinAddr: 0x100005400, symSize: 0x20 }
  - { offset: 0x8A29, size: 0x8, addend: 0x0, symName: __ZNSt3__19allocatorIdEC2B8ne180100Ev, symObjAddr: 0x1600, symBinAddr: 0x100005420, symSize: 0x20 }
  - { offset: 0x8A51, size: 0x8, addend: 0x0, symName: __ZNSt3__116__non_trivial_ifILb1ENS_9allocatorIdEEEC2B8ne180100Ev, symObjAddr: 0x1620, symBinAddr: 0x100005440, symSize: 0x10 }
  - { offset: 0x8A79, size: 0x8, addend: 0x0, symName: __ZNSt3__128__exception_guard_exceptionsINS_6vectorIdNS_9allocatorIdEEE16__destroy_vectorEEC1B8ne180100ES5_, symObjAddr: 0x1630, symBinAddr: 0x100005450, symSize: 0x30 }
  - { offset: 0x8AAF, size: 0x8, addend: 0x0, symName: __ZNSt3__128__exception_guard_exceptionsINS_6vectorIdNS_9allocatorIdEEE16__destroy_vectorEEC2B8ne180100ES5_, symObjAddr: 0x1660, symBinAddr: 0x100005480, symSize: 0x20 }
  - { offset: 0x8AE5, size: 0x8, addend: 0x0, symName: __ZNSt3__16vectorIdNS_9allocatorIdEEE16__destroy_vectorC2B8ne180100ERS3_, symObjAddr: 0x1680, symBinAddr: 0x1000054A0, symSize: 0x20 }
  - { offset: 0x8B1C, size: 0x8, addend: 0x0, symName: __ZNKSt3__16vectorIdNS_9allocatorIdEEE8max_sizeEv, symObjAddr: 0x16A0, symBinAddr: 0x1000054C0, symSize: 0x60 }
  - { offset: 0x8B42, size: 0x8, addend: 0x0, symName: __ZNKSt3__16vectorIdNS_9allocatorIdEEE20__throw_length_errorB8ne180100Ev, symObjAddr: 0x1700, symBinAddr: 0x100005520, symSize: 0x20 }
  - { offset: 0x8B66, size: 0x8, addend: 0x0, symName: __ZNSt3__16vectorIdNS_9allocatorIdEEE7__allocB8ne180100Ev, symObjAddr: 0x1760, symBinAddr: 0x100005580, symSize: 0x20 }
  - { offset: 0x8B8A, size: 0x8, addend: 0x0, symName: __ZNSt3__16vectorIdNS_9allocatorIdEEE9__end_capB8ne180100Ev, symObjAddr: 0x1780, symBinAddr: 0x1000055A0, symSize: 0x20 }
  - { offset: 0x8BAE, size: 0x8, addend: 0x0, symName: __ZNKSt3__16vectorIdNS_9allocatorIdEEE14__annotate_newB8ne180100Em, symObjAddr: 0x17A0, symBinAddr: 0x1000055C0, symSize: 0x10 }
  - { offset: 0x8BEC, size: 0x8, addend: 0x0, symName: __ZNSt3__116allocator_traitsINS_9allocatorIdEEE8max_sizeB8ne180100IS2_vEEmRKS2_, symObjAddr: 0x17E0, symBinAddr: 0x100005600, symSize: 0x20 }
  - { offset: 0x8C19, size: 0x8, addend: 0x0, symName: __ZNKSt3__16vectorIdNS_9allocatorIdEEE7__allocB8ne180100Ev, symObjAddr: 0x1800, symBinAddr: 0x100005620, symSize: 0x20 }
  - { offset: 0x8C3E, size: 0x8, addend: 0x0, symName: __ZNSt3__114numeric_limitsIlE3maxB8ne180100Ev, symObjAddr: 0x1820, symBinAddr: 0x100005640, symSize: 0x10 }
  - { offset: 0x8C65, size: 0x8, addend: 0x0, symName: __ZNKSt3__16__lessIvvEclB8ne180100ImmEEbRKT_RKT0_, symObjAddr: 0x1890, symBinAddr: 0x1000056B0, symSize: 0x30 }
  - { offset: 0x8CB7, size: 0x8, addend: 0x0, symName: __ZNKSt3__19allocatorIdE8max_sizeB8ne180100Ev, symObjAddr: 0x18C0, symBinAddr: 0x1000056E0, symSize: 0x20 }
  - { offset: 0x8CDB, size: 0x8, addend: 0x0, symName: __ZNKSt3__117__compressed_pairIPdNS_9allocatorIdEEE6secondB8ne180100Ev, symObjAddr: 0x18E0, symBinAddr: 0x100005700, symSize: 0x20 }
  - { offset: 0x8CFF, size: 0x8, addend: 0x0, symName: __ZNKSt3__122__compressed_pair_elemINS_9allocatorIdEELi1ELb1EE5__getB8ne180100Ev, symObjAddr: 0x1900, symBinAddr: 0x100005720, symSize: 0x10 }
  - { offset: 0x8D24, size: 0x8, addend: 0x0, symName: __ZNSt3__123__libcpp_numeric_limitsIlLb1EE3maxB8ne180100Ev, symObjAddr: 0x1910, symBinAddr: 0x100005730, symSize: 0x10 }
  - { offset: 0x8D37, size: 0x8, addend: 0x0, symName: __ZNSt12length_errorC1B8ne180100EPKc, symObjAddr: 0x1990, symBinAddr: 0x1000057B0, symSize: 0x30 }
  - { offset: 0x8D6D, size: 0x8, addend: 0x0, symName: __ZNSt12length_errorC2B8ne180100EPKc, symObjAddr: 0x19C0, symBinAddr: 0x1000057E0, symSize: 0x40 }
  - { offset: 0x8DA3, size: 0x8, addend: 0x0, symName: __ZNSt3__19allocatorIdE8allocateB8ne180100Em, symObjAddr: 0x1A00, symBinAddr: 0x100005820, symSize: 0x50 }
  - { offset: 0x8DD5, size: 0x8, addend: 0x0, symName: __ZNSt3__117__compressed_pairIPdNS_9allocatorIdEEE6secondB8ne180100Ev, symObjAddr: 0x1AD0, symBinAddr: 0x1000058F0, symSize: 0x20 }
  - { offset: 0x8DF9, size: 0x8, addend: 0x0, symName: __ZNSt3__122__compressed_pair_elemINS_9allocatorIdEELi1ELb1EE5__getB8ne180100Ev, symObjAddr: 0x1AF0, symBinAddr: 0x100005910, symSize: 0x10 }
  - { offset: 0x8E1D, size: 0x8, addend: 0x0, symName: __ZNSt3__117__compressed_pairIPdNS_9allocatorIdEEE5firstB8ne180100Ev, symObjAddr: 0x1B00, symBinAddr: 0x100005920, symSize: 0x20 }
  - { offset: 0x8E41, size: 0x8, addend: 0x0, symName: __ZNSt3__122__compressed_pair_elemIPdLi0ELb0EE5__getB8ne180100Ev, symObjAddr: 0x1B20, symBinAddr: 0x100005940, symSize: 0x10 }
  - { offset: 0x8E7E, size: 0x8, addend: 0x0, symName: __ZNSt3__16vectorIdNS_9allocatorIdEEE21_ConstructTransactionC1B8ne180100ERS3_m, symObjAddr: 0x1B30, symBinAddr: 0x100005950, symSize: 0x30 }
  - { offset: 0x8EC5, size: 0x8, addend: 0x0, symName: __ZNSt3__116allocator_traitsINS_9allocatorIdEEE9constructB8ne180100IdJEvEEvRS2_PT_DpOT0_, symObjAddr: 0x1B60, symBinAddr: 0x100005980, symSize: 0x30 }
  - { offset: 0x8F06, size: 0x8, addend: 0x0, symName: __ZNSt3__16vectorIdNS_9allocatorIdEEE21_ConstructTransactionD1B8ne180100Ev, symObjAddr: 0x1BA0, symBinAddr: 0x1000059C0, symSize: 0x20 }
  - { offset: 0x8F2E, size: 0x8, addend: 0x0, symName: __ZNSt3__16vectorIdNS_9allocatorIdEEE21_ConstructTransactionC2B8ne180100ERS3_m, symObjAddr: 0x1BC0, symBinAddr: 0x1000059E0, symSize: 0x40 }
  - { offset: 0x8F74, size: 0x8, addend: 0x0, symName: __ZNSt3__19allocatorIdE9constructB8ne180100IdJEEEvPT_DpOT0_, symObjAddr: 0x1C00, symBinAddr: 0x100005A20, symSize: 0x20 }
  - { offset: 0x8FB4, size: 0x8, addend: 0x0, symName: __ZNSt3__16vectorIdNS_9allocatorIdEEE21_ConstructTransactionD2B8ne180100Ev, symObjAddr: 0x1C20, symBinAddr: 0x100005A40, symSize: 0x20 }
  - { offset: 0x8FDC, size: 0x8, addend: 0x0, symName: __ZNSt3__128__exception_guard_exceptionsINS_6vectorIdNS_9allocatorIdEEE16__destroy_vectorEED2B8ne180100Ev, symObjAddr: 0x1C40, symBinAddr: 0x100005A60, symSize: 0x40 }
  - { offset: 0x9004, size: 0x8, addend: 0x0, symName: __ZNSt3__16vectorIdNS_9allocatorIdEEE16__destroy_vectorclB8ne180100Ev, symObjAddr: 0x1C80, symBinAddr: 0x100005AA0, symSize: 0x80 }
  - { offset: 0x9028, size: 0x8, addend: 0x0, symName: __ZNSt3__16vectorIdNS_9allocatorIdEEE7__clearB8ne180100Ev, symObjAddr: 0x1D00, symBinAddr: 0x100005B20, symSize: 0x20 }
  - { offset: 0x904C, size: 0x8, addend: 0x0, symName: __ZNKSt3__16vectorIdNS_9allocatorIdEEE17__annotate_deleteB8ne180100Ev, symObjAddr: 0x1D20, symBinAddr: 0x100005B40, symSize: 0x10 }
  - { offset: 0x9071, size: 0x8, addend: 0x0, symName: __ZNSt3__116allocator_traitsINS_9allocatorIdEEE10deallocateB8ne180100ERS2_Pdm, symObjAddr: 0x1D30, symBinAddr: 0x100005B50, symSize: 0x30 }
  - { offset: 0x90B2, size: 0x8, addend: 0x0, symName: __ZNKSt3__16vectorIdNS_9allocatorIdEEE8capacityB8ne180100Ev, symObjAddr: 0x1D60, symBinAddr: 0x100005B80, symSize: 0x30 }
  - { offset: 0x90D6, size: 0x8, addend: 0x0, symName: __ZNSt3__16vectorIdNS_9allocatorIdEEE22__base_destruct_at_endB8ne180100EPd, symObjAddr: 0x1D90, symBinAddr: 0x100005BB0, symSize: 0x80 }
  - { offset: 0x9119, size: 0x8, addend: 0x0, symName: __ZNSt3__116allocator_traitsINS_9allocatorIdEEE7destroyB8ne180100IdvEEvRS2_PT_, symObjAddr: 0x1E10, symBinAddr: 0x100005C30, symSize: 0x30 }
  - { offset: 0x9155, size: 0x8, addend: 0x0, symName: __ZNSt3__19allocatorIdE7destroyB8ne180100EPd, symObjAddr: 0x1E40, symBinAddr: 0x100005C60, symSize: 0x10 }
  - { offset: 0x9187, size: 0x8, addend: 0x0, symName: __ZNSt3__19allocatorIdE10deallocateB8ne180100EPdm, symObjAddr: 0x1E50, symBinAddr: 0x100005C70, symSize: 0x40 }
  - { offset: 0x91C7, size: 0x8, addend: 0x0, symName: __ZNKSt3__16vectorIdNS_9allocatorIdEEE9__end_capB8ne180100Ev, symObjAddr: 0x1F00, symBinAddr: 0x100005D20, symSize: 0x20 }
  - { offset: 0x91EB, size: 0x8, addend: 0x0, symName: __ZNKSt3__117__compressed_pairIPdNS_9allocatorIdEEE5firstB8ne180100Ev, symObjAddr: 0x1F20, symBinAddr: 0x100005D40, symSize: 0x20 }
  - { offset: 0x920F, size: 0x8, addend: 0x0, symName: __ZNKSt3__122__compressed_pair_elemIPdLi0ELb0EE5__getB8ne180100Ev, symObjAddr: 0x1F40, symBinAddr: 0x100005D60, symSize: 0x10 }
  - { offset: 0x9233, size: 0x8, addend: 0x0, symName: __ZNSt3__16vectorIdNS_9allocatorIdEEED2B8ne180100Ev, symObjAddr: 0x1F50, symBinAddr: 0x100005D70, symSize: 0x40 }
  - { offset: 0x925C, size: 0x8, addend: 0x0, symName: __ZNSt3__111char_traitsIcE6lengthB8ne180100EPKc, symObjAddr: 0x21B0, symBinAddr: 0x100005FD0, symSize: 0x30 }
  - { offset: 0x929C, size: 0x8, addend: 0x0, symName: __ZNKSt3__113basic_ostreamIcNS_11char_traitsIcEEE6sentrycvbB8ne180100Ev, symObjAddr: 0x21E0, symBinAddr: 0x100006000, symSize: 0x20 }
  - { offset: 0x92C0, size: 0x8, addend: 0x0, symName: __ZNSt3__119ostreambuf_iteratorIcNS_11char_traitsIcEEEC1B8ne180100ERNS_13basic_ostreamIcS2_EE, symObjAddr: 0x2420, symBinAddr: 0x100006240, symSize: 0x30 }
  - { offset: 0x92F6, size: 0x8, addend: 0x0, symName: __ZNKSt3__18ios_base5flagsB8ne180100Ev, symObjAddr: 0x2450, symBinAddr: 0x100006270, symSize: 0x20 }
  - { offset: 0x931C, size: 0x8, addend: 0x0, symName: __ZNKSt3__19basic_iosIcNS_11char_traitsIcEEE4fillB8ne180100Ev, symObjAddr: 0x2470, symBinAddr: 0x100006290, symSize: 0x70 }
  - { offset: 0x9340, size: 0x8, addend: 0x0, symName: __ZNKSt3__119ostreambuf_iteratorIcNS_11char_traitsIcEEE6failedB8ne180100Ev, symObjAddr: 0x24E0, symBinAddr: 0x100006300, symSize: 0x20 }
  - { offset: 0x9364, size: 0x8, addend: 0x0, symName: __ZNSt3__19basic_iosIcNS_11char_traitsIcEEE8setstateB8ne180100Ej, symObjAddr: 0x2500, symBinAddr: 0x100006320, symSize: 0x30 }
  - { offset: 0x9397, size: 0x8, addend: 0x0, symName: __ZNKSt3__18ios_base5widthB8ne180100Ev, symObjAddr: 0x2530, symBinAddr: 0x100006350, symSize: 0x20 }
  - { offset: 0x93BD, size: 0x8, addend: 0x0, symName: __ZNSt3__115basic_streambufIcNS_11char_traitsIcEEE5sputnB8ne180100EPKcl, symObjAddr: 0x2550, symBinAddr: 0x100006370, symSize: 0x30 }
  - { offset: 0x93FD, size: 0x8, addend: 0x0, symName: __ZNSt3__112basic_stringIcNS_11char_traitsIcEENS_9allocatorIcEEEC1B8ne180100Emc, symObjAddr: 0x2580, symBinAddr: 0x1000063A0, symSize: 0x30 }
  - { offset: 0x9443, size: 0x8, addend: 0x0, symName: __ZNKSt3__112basic_stringIcNS_11char_traitsIcEENS_9allocatorIcEEE4dataB8ne180100Ev, symObjAddr: 0x25B0, symBinAddr: 0x1000063D0, symSize: 0x30 }
  - { offset: 0x9467, size: 0x8, addend: 0x0, symName: __ZNSt3__18ios_base5widthB8ne180100El, symObjAddr: 0x25E0, symBinAddr: 0x100006400, symSize: 0x30 }
  - { offset: 0x94AB, size: 0x8, addend: 0x0, symName: __ZNSt3__112basic_stringIcNS_11char_traitsIcEENS_9allocatorIcEEEC2B8ne180100Emc, symObjAddr: 0x2610, symBinAddr: 0x100006430, symSize: 0x50 }
  - { offset: 0x94F1, size: 0x8, addend: 0x0, symName: __ZNSt3__117__compressed_pairINS_12basic_stringIcNS_11char_traitsIcEENS_9allocatorIcEEE5__repES5_EC1B8ne180100INS_18__default_init_tagESA_EEOT_OT0_, symObjAddr: 0x2660, symBinAddr: 0x100006480, symSize: 0x30 }
  - { offset: 0x9547, size: 0x8, addend: 0x0, symName: __ZNSt3__117__compressed_pairINS_12basic_stringIcNS_11char_traitsIcEENS_9allocatorIcEEE5__repES5_EC2B8ne180100INS_18__default_init_tagESA_EEOT_OT0_, symObjAddr: 0x2690, symBinAddr: 0x1000064B0, symSize: 0x30 }
  - { offset: 0x959D, size: 0x8, addend: 0x0, symName: __ZNSt3__122__compressed_pair_elemINS_12basic_stringIcNS_11char_traitsIcEENS_9allocatorIcEEE5__repELi0ELb0EEC2B8ne180100ENS_18__default_init_tagE, symObjAddr: 0x26C0, symBinAddr: 0x1000064E0, symSize: 0x10 }
  - { offset: 0x95CF, size: 0x8, addend: 0x0, symName: __ZNSt3__122__compressed_pair_elemINS_9allocatorIcEELi1ELb1EEC2B8ne180100ENS_18__default_init_tagE, symObjAddr: 0x26D0, symBinAddr: 0x1000064F0, symSize: 0x20 }
  - { offset: 0x9601, size: 0x8, addend: 0x0, symName: __ZNSt3__19allocatorIcEC2B8ne180100Ev, symObjAddr: 0x26F0, symBinAddr: 0x100006510, symSize: 0x20 }
  - { offset: 0x9629, size: 0x8, addend: 0x0, symName: __ZNSt3__116__non_trivial_ifILb1ENS_9allocatorIcEEEC2B8ne180100Ev, symObjAddr: 0x2710, symBinAddr: 0x100006530, symSize: 0x10 }
  - { offset: 0x9651, size: 0x8, addend: 0x0, symName: __ZNKSt3__112basic_stringIcNS_11char_traitsIcEENS_9allocatorIcEEE13__get_pointerB8ne180100Ev, symObjAddr: 0x2730, symBinAddr: 0x100006550, symSize: 0x50 }
  - { offset: 0x9675, size: 0x8, addend: 0x0, symName: __ZNKSt3__112basic_stringIcNS_11char_traitsIcEENS_9allocatorIcEEE9__is_longB8ne180100Ev, symObjAddr: 0x2780, symBinAddr: 0x1000065A0, symSize: 0x30 }
  - { offset: 0x9699, size: 0x8, addend: 0x0, symName: __ZNKSt3__112basic_stringIcNS_11char_traitsIcEENS_9allocatorIcEEE18__get_long_pointerB8ne180100Ev, symObjAddr: 0x27B0, symBinAddr: 0x1000065D0, symSize: 0x20 }
  - { offset: 0x96BD, size: 0x8, addend: 0x0, symName: __ZNKSt3__112basic_stringIcNS_11char_traitsIcEENS_9allocatorIcEEE19__get_short_pointerB8ne180100Ev, symObjAddr: 0x27D0, symBinAddr: 0x1000065F0, symSize: 0x30 }
  - { offset: 0x96E1, size: 0x8, addend: 0x0, symName: __ZNKSt3__117__compressed_pairINS_12basic_stringIcNS_11char_traitsIcEENS_9allocatorIcEEE5__repES5_E5firstB8ne180100Ev, symObjAddr: 0x2800, symBinAddr: 0x100006620, symSize: 0x20 }
  - { offset: 0x9705, size: 0x8, addend: 0x0, symName: __ZNKSt3__122__compressed_pair_elemINS_12basic_stringIcNS_11char_traitsIcEENS_9allocatorIcEEE5__repELi0ELb0EE5__getB8ne180100Ev, symObjAddr: 0x2820, symBinAddr: 0x100006640, symSize: 0x10 }
  - { offset: 0x972A, size: 0x8, addend: 0x0, symName: __ZNSt3__114pointer_traitsIPKcE10pointer_toB8ne180100ERS1_, symObjAddr: 0x2830, symBinAddr: 0x100006650, symSize: 0x10 }
  - { offset: 0x974C, size: 0x8, addend: 0x0, symName: __ZNSt3__119ostreambuf_iteratorIcNS_11char_traitsIcEEEC2B8ne180100ERNS_13basic_ostreamIcS2_EE, symObjAddr: 0x2840, symBinAddr: 0x100006660, symSize: 0x50 }
  - { offset: 0x9782, size: 0x8, addend: 0x0, symName: __ZNKSt3__19basic_iosIcNS_11char_traitsIcEEE5rdbufB8ne180100Ev, symObjAddr: 0x2890, symBinAddr: 0x1000066B0, symSize: 0x20 }
  - { offset: 0x97A6, size: 0x8, addend: 0x0, symName: __ZNKSt3__18ios_base5rdbufB8ne180100Ev, symObjAddr: 0x28B0, symBinAddr: 0x1000066D0, symSize: 0x20 }
  - { offset: 0x97CB, size: 0x8, addend: 0x0, symName: __ZNSt3__111char_traitsIcE11eq_int_typeB8ne180100Eii, symObjAddr: 0x28D0, symBinAddr: 0x1000066F0, symSize: 0x20 }
  - { offset: 0x97FE, size: 0x8, addend: 0x0, symName: __ZNSt3__111char_traitsIcE3eofB8ne180100Ev, symObjAddr: 0x28F0, symBinAddr: 0x100006710, symSize: 0x10 }
  - { offset: 0x9811, size: 0x8, addend: 0x0, symName: __ZNKSt3__19basic_iosIcNS_11char_traitsIcEEE5widenB8ne180100Ec, symObjAddr: 0x2900, symBinAddr: 0x100006720, symSize: 0x80 }
  - { offset: 0x9881, size: 0x8, addend: 0x0, symName: __ZNKSt3__15ctypeIcE5widenB8ne180100Ec, symObjAddr: 0x29B0, symBinAddr: 0x1000067D0, symSize: 0x30 }
  - { offset: 0x98B4, size: 0x8, addend: 0x0, symName: __ZNSt3__18ios_base8setstateB8ne180100Ej, symObjAddr: 0x29E0, symBinAddr: 0x100006800, symSize: 0x30 }
  - { offset: 0x98E9, size: 0x8, addend: 0x0, symName: __ZNSt3__16vectorIdNS_9allocatorIdEEEC2B8ne180100ESt16initializer_listIdE, symObjAddr: 0x2A30, symBinAddr: 0x100006850, symSize: 0x110 }
  - { offset: 0x9937, size: 0x8, addend: 0x0, symName: __ZNKSt16initializer_listIdE4sizeB8ne180100Ev, symObjAddr: 0x2B40, symBinAddr: 0x100006960, symSize: 0x20 }
  - { offset: 0x995B, size: 0x8, addend: 0x0, symName: __ZNSt3__16vectorIdNS_9allocatorIdEEE18__construct_at_endIPKdS6_EEvT_T0_m, symObjAddr: 0x2B60, symBinAddr: 0x100006980, symSize: 0x90 }
  - { offset: 0x99CD, size: 0x8, addend: 0x0, symName: __ZNKSt16initializer_listIdE5beginB8ne180100Ev, symObjAddr: 0x2BF0, symBinAddr: 0x100006A10, symSize: 0x20 }
  - { offset: 0x99F1, size: 0x8, addend: 0x0, symName: __ZNKSt16initializer_listIdE3endB8ne180100Ev, symObjAddr: 0x2C10, symBinAddr: 0x100006A30, symSize: 0x20 }
  - { offset: 0x9A33, size: 0x8, addend: 0x0, symName: __ZNSt3__14pairIPKdS2_EC1B8ne180100IS2_S2_TnNS_9enable_ifIXclsr10_CheckArgsE17__enable_implicitIT_T0_EEEiE4typeELi0EEEOS6_OS7_, symObjAddr: 0x2DE0, symBinAddr: 0x100006C00, symSize: 0x30 }
  - { offset: 0x9A8F, size: 0x8, addend: 0x0, symName: __ZNSt3__14pairIPKdS2_EC2B8ne180100IS2_S2_TnNS_9enable_ifIXclsr10_CheckArgsE17__enable_implicitIT_T0_EEEiE4typeELi0EEEOS6_OS7_, symObjAddr: 0x2E10, symBinAddr: 0x100006C30, symSize: 0x30 }
  - { offset: 0x9AEC, size: 0x8, addend: 0x0, symName: __ZNSt3__118__unwrap_iter_implIPKdLb1EE8__unwrapB8ne180100ES2_, symObjAddr: 0x2E40, symBinAddr: 0x100006C60, symSize: 0x20 }
  - { offset: 0x9B31, size: 0x8, addend: 0x0, symName: __ZNKSt3__114__copy_trivialclB8ne180100IKddTnNS_9enable_ifIXsr38__can_lower_copy_assignment_to_memmoveIT_T0_EE5valueEiE4typeELi0EEENS_4pairIPS4_PS5_EES9_S9_SA_, symObjAddr: 0x2FE0, symBinAddr: 0x100006E00, symSize: 0x40 }
  - { offset: 0x9BA1, size: 0x8, addend: 0x0, symName: __ZNSt3__14pairIPKdPdEC1B8ne180100IRS2_S3_TnNS_9enable_ifIXclsr10_CheckArgsE17__enable_implicitIT_T0_EEEiE4typeELi0EEEOS8_OS9_, symObjAddr: 0x3170, symBinAddr: 0x100006F90, symSize: 0x30 }
  - { offset: 0x9BFD, size: 0x8, addend: 0x0, symName: __ZNSt3__14pairIPKdPdEC2B8ne180100IRS2_S3_TnNS_9enable_ifIXclsr10_CheckArgsE17__enable_implicitIT_T0_EEEiE4typeELi0EEEOS8_OS9_, symObjAddr: 0x31A0, symBinAddr: 0x100006FC0, symSize: 0x30 }
  - { offset: 0x9C59, size: 0x8, addend: 0x0, symName: __ZNSt3__14pairIPKdPdEC1B8ne180100IS2_S3_TnNS_9enable_ifIXclsr10_CheckArgsE17__enable_implicitIT_T0_EEEiE4typeELi0EEEOS7_OS8_, symObjAddr: 0x31D0, symBinAddr: 0x100006FF0, symSize: 0x30 }
  - { offset: 0x9CB5, size: 0x8, addend: 0x0, symName: __ZNSt3__14pairIPKdPdEC2B8ne180100IS2_S3_TnNS_9enable_ifIXclsr10_CheckArgsE17__enable_implicitIT_T0_EEEiE4typeELi0EEEOS7_OS8_, symObjAddr: 0x3200, symBinAddr: 0x100007020, symSize: 0x30 }
  - { offset: 0x9D12, size: 0x8, addend: 0x0, symName: __ZNSt3__118__unwrap_iter_implIPKdLb1EE8__rewrapB8ne180100ES2_S2_, symObjAddr: 0x3270, symBinAddr: 0x100007090, symSize: 0x50 }
  - { offset: 0x9D43, size: 0x8, addend: 0x0, symName: __ZNSt3__118__unwrap_iter_implIPdLb1EE8__unwrapB8ne180100ES1_, symObjAddr: 0x32C0, symBinAddr: 0x1000070E0, symSize: 0x20 }
  - { offset: 0x9D66, size: 0x8, addend: 0x0, symName: __ZNSt3__118__unwrap_iter_implIPdLb1EE8__rewrapB8ne180100ES1_S1_, symObjAddr: 0x32E0, symBinAddr: 0x100007100, symSize: 0x50 }
  - { offset: 0x9D96, size: 0x8, addend: 0x0, symName: __ZNSt3__16vectorIdNS_9allocatorIdEEEC2ERKS3_, symObjAddr: 0x3330, symBinAddr: 0x100007150, symSize: 0xA0 }
  - { offset: 0x9DD0, size: 0x8, addend: 0x0, symName: __ZNSt3__116allocator_traitsINS_9allocatorIdEEE37select_on_container_copy_constructionB8ne180100IS2_vvEES2_RKS2_, symObjAddr: 0x33D0, symBinAddr: 0x1000071F0, symSize: 0x10 }
  - { offset: 0x9E03, size: 0x8, addend: 0x0, symName: __ZNSt3__117__compressed_pairIPdNS_9allocatorIdEEEC1B8ne180100IDnS3_EEOT_OT0_, symObjAddr: 0x33E0, symBinAddr: 0x100007200, symSize: 0x30 }
  - { offset: 0x9E59, size: 0x8, addend: 0x0, symName: __ZNSt3__16vectorIdNS_9allocatorIdEEE16__init_with_sizeB8ne180100IPdS5_EEvT_T0_m, symObjAddr: 0x3410, symBinAddr: 0x100007230, symSize: 0xB0 }
  - { offset: 0x9ECB, size: 0x8, addend: 0x0, symName: __ZNKSt3__16vectorIdNS_9allocatorIdEEE4sizeB8ne180100Ev, symObjAddr: 0x34C0, symBinAddr: 0x1000072E0, symSize: 0x20 }
  - { offset: 0x9EEF, size: 0x8, addend: 0x0, symName: __ZNSt3__117__compressed_pairIPdNS_9allocatorIdEEEC2B8ne180100IDnS3_EEOT_OT0_, symObjAddr: 0x34E0, symBinAddr: 0x100007300, symSize: 0x40 }
  - { offset: 0x9F45, size: 0x8, addend: 0x0, symName: __ZNSt3__122__compressed_pair_elemINS_9allocatorIdEELi1ELb1EEC2B8ne180100IS2_vEEOT_, symObjAddr: 0x3520, symBinAddr: 0x100007340, symSize: 0x10 }
  - { offset: 0x9F85, size: 0x8, addend: 0x0, symName: __ZNSt3__16vectorIdNS_9allocatorIdEEE18__construct_at_endIPdS5_EEvT_T0_m, symObjAddr: 0x3530, symBinAddr: 0x100007350, symSize: 0x90 }
  - { offset: 0xA010, size: 0x8, addend: 0x0, symName: __ZNSt3__14pairIPdS1_EC1B8ne180100IS1_S1_TnNS_9enable_ifIXclsr10_CheckArgsE17__enable_implicitIT_T0_EEEiE4typeELi0EEEOS5_OS6_, symObjAddr: 0x36F0, symBinAddr: 0x100007510, symSize: 0x30 }
  - { offset: 0xA06C, size: 0x8, addend: 0x0, symName: __ZNSt3__14pairIPdS1_EC2B8ne180100IS1_S1_TnNS_9enable_ifIXclsr10_CheckArgsE17__enable_implicitIT_T0_EEEiE4typeELi0EEEOS5_OS6_, symObjAddr: 0x3720, symBinAddr: 0x100007540, symSize: 0x30 }
  - { offset: 0xA0C8, size: 0x8, addend: 0x0, symName: __ZNKSt3__114__copy_trivialclB8ne180100IddTnNS_9enable_ifIXsr38__can_lower_copy_assignment_to_memmoveIT_T0_EE5valueEiE4typeELi0EEENS_4pairIPS3_PS4_EES8_S8_S9_, symObjAddr: 0x38C0, symBinAddr: 0x1000076E0, symSize: 0x40 }
  - { offset: 0xA12E, size: 0x8, addend: 0x0, symName: __ZNSt3__14pairIPdS1_EC1B8ne180100IRS1_S1_TnNS_9enable_ifIXclsr10_CheckArgsE17__enable_implicitIT_T0_EEEiE4typeELi0EEEOS6_OS7_, symObjAddr: 0x3A20, symBinAddr: 0x100007840, symSize: 0x30 }
  - { offset: 0xA18A, size: 0x8, addend: 0x0, symName: __ZNSt3__14pairIPdS1_EC2B8ne180100IRS1_S1_TnNS_9enable_ifIXclsr10_CheckArgsE17__enable_implicitIT_T0_EEEiE4typeELi0EEEOS6_OS7_, symObjAddr: 0x3A50, symBinAddr: 0x100007870, symSize: 0x2B }
...
